; Function Attrs: mustprogress uwtable
define hidden noundef ptr @_ZN8datatype10param_size5power5substER7obj_mapI4sortPNS0_4sizeEE(ptr noundef nonnull readonly align 8 captures(none) dereferenceable(32) %0, ptr noundef nonnull align 8 dereferenceable(24) %1) unnamed_addr #4 align 2 {
  %3 = getelementptr inbounds nuw i8, ptr %0, i64 16
  %4 = load ptr, ptr %3, align 8, !tbaa !118
  %5 = load ptr, ptr %4, align 8, !tbaa !68
  %6 = getelementptr inbounds nuw i8, ptr %5, i64 16
  %7 = load ptr, ptr %6, align 8
  %8 = tail call noundef ptr %7(ptr noundef nonnull align 8 dereferenceable(12) %4, ptr noundef nonnull align 8 dereferenceable(24) %1)
  %9 = getelementptr inbounds nuw i8, ptr %0, i64 24
  %10 = load ptr, ptr %9, align 8, !tbaa !120
  %11 = load ptr, ptr %10, align 8, !tbaa !68
  %12 = getelementptr inbounds nuw i8, ptr %11, i64 16
  %13 = load ptr, ptr %12, align 8
  %14 = tail call noundef ptr %13(ptr noundef nonnull align 8 dereferenceable(12) %10, ptr noundef nonnull align 8 dereferenceable(24) %1)
  %15 = tail call noalias noundef ptr @_ZN6memory8allocateEm(i64 noundef 32)
  %16 = getelementptr inbounds nuw i8, ptr %15, i64 8
  store i32 0, ptr %16, align 8, !tbaa !99
  store ptr getelementptr inbounds nuw inrange(-16, 32) (i8, ptr @_ZTVN8datatype10param_size5powerE, i64 16), ptr %15, align 8, !tbaa !68
  %17 = getelementptr inbounds nuw i8, ptr %15, i64 16
  store ptr %8, ptr %17, align 8, !tbaa !118
  %18 = getelementptr inbounds nuw i8, ptr %15, i64 24
  store ptr %14, ptr %18, align 8, !tbaa !120
  %19 = getelementptr inbounds nuw i8, ptr %8, i64 8
  %20 = load i32, ptr %19, align 8, !tbaa !99
  %21 = add i32 %20, 1
  store i32 %21, ptr %19, align 8, !tbaa !99
  %22 = getelementptr inbounds nuw i8, ptr %14, i64 8
  %23 = load i32, ptr %22, align 8, !tbaa !99
  %24 = add i32 %23, 1
  store i32 %24, ptr %22, align 8, !tbaa !99
  ret ptr %15
}